; Function Attrs: mustprogress nofree nosync nounwind willreturn memory(read, inaccessiblemem: none) uwtable
define dso_local noundef zeroext i1 @_ZNK6Effect16field_is_writtenEPK8Variable(ptr noundef nonnull readonly align 8 captures(none) dereferenceable(74) %0, ptr noundef readonly captures(none) %1) local_unnamed_addr #8 align 2 {
  %3 = getelementptr inbounds nuw i8, ptr %1, i64 64
  %4 = load ptr, ptr %3, align 8, !tbaa !49
  %.not.i = icmp eq ptr %4, null
  br i1 %.not.i, label %_ZNK6Effect10is_writtenEPK8Variable.exit, label %_ZNK8Variable12is_aggregateEv.exit

_ZNK8Variable12is_aggregateEv.exit:               ; preds = %2
  %5 = load i32, ptr %4, align 8, !tbaa !50
  %6 = and i32 %5, -2
  %spec.select.i.i = icmp eq i32 %6, 2
  br i1 %spec.select.i.i, label %.preheader, label %_ZNK6Effect10is_writtenEPK8Variable.exit

.preheader:                                       ; preds = %_ZNK8Variable12is_aggregateEv.exit
  %7 = getelementptr inbounds nuw i8, ptr %1, i64 8
  %8 = getelementptr inbounds nuw i8, ptr %1, i64 16
  %9 = load ptr, ptr %8, align 8, !tbaa !114
  %10 = load ptr, ptr %7, align 8, !tbaa !115
  %.not = icmp eq ptr %9, %10
  br i1 %.not, label %_ZNK6Effect10is_writtenEPK8Variable.exit, label %.lr.ph

.lr.ph:                                           ; preds = %.preheader
  %11 = ptrtoint ptr %9 to i64
  %12 = ptrtoint ptr %10 to i64
  %13 = sub i64 %11, %12
  %14 = ashr exact i64 %13, 3
  %15 = getelementptr inbounds nuw i8, ptr %0, i64 24
  %16 = getelementptr inbounds nuw i8, ptr %0, i64 32
  %17 = load ptr, ptr %16, align 8, !tbaa !16
  %18 = load ptr, ptr %15, align 8, !tbaa !17
  %.not13.i = icmp eq ptr %17, %18
  %19 = ptrtoint ptr %17 to i64
  %20 = ptrtoint ptr %18 to i64
  %21 = sub i64 %19, %20
  %22 = ashr exact i64 %21, 3
  %umax.i = tail call i64 @llvm.umax.i64(i64 %22, i64 1)
  %umax20 = tail call i64 @llvm.umax.i64(i64 %14, i64 1)
  br i1 %.not13.i, label %.critedge.us, label %tailrecurse.us.preheader.i

.critedge.us:                                     ; preds = %.lr.ph, %.critedge.us
  %.01114.us = phi i64 [ %26, %.critedge.us ], [ 0, %.lr.ph ]
  %23 = getelementptr inbounds nuw ptr, ptr %10, i64 %.01114.us
  %24 = load ptr, ptr %23, align 8, !tbaa !23
  %25 = tail call noundef zeroext i1 @_ZNK6Effect16field_is_writtenEPK8Variable(ptr noundef nonnull align 8 dereferenceable(74) %0, ptr noundef %24)
  %26 = add nuw i64 %.01114.us, 1
  %exitcond21.not = icmp eq i64 %26, %umax20
  %or.cond = select i1 %25, i1 true, i1 %exitcond21.not
  br i1 %or.cond, label %_ZNK6Effect10is_writtenEPK8Variable.exit, label %.critedge.us, !llvm.loop !117

tailrecurse.us.preheader.i:                       ; preds = %.lr.ph, %.loopexit
  %.01114 = phi i64 [ %38, %.loopexit ], [ 0, %.lr.ph ]
  %27 = getelementptr inbounds nuw ptr, ptr %10, i64 %.01114
  %28 = load ptr, ptr %27, align 8, !tbaa !23
  br label %tailrecurse.us.i

tailrecurse.us.i:                                 ; preds = %._crit_edge.us.i, %tailrecurse.us.preheader.i
  %.tr10.us.i = phi ptr [ %36, %._crit_edge.us.i ], [ %28, %tailrecurse.us.preheader.i ]
  br label %31

29:                                               ; preds = %31
  %30 = add nuw i64 %.012.us.i, 1
  %exitcond.not.i = icmp eq i64 %30, %umax.i
  br i1 %exitcond.not.i, label %._crit_edge.us.i, label %31, !llvm.loop !73

31:                                               ; preds = %29, %tailrecurse.us.i
  %.012.us.i = phi i64 [ 0, %tailrecurse.us.i ], [ %30, %29 ]
  %32 = getelementptr inbounds nuw ptr, ptr %18, i64 %.012.us.i
  %33 = load ptr, ptr %32, align 8, !tbaa !23
  %34 = icmp eq ptr %33, %.tr10.us.i
  br i1 %34, label %_ZNK6Effect10is_writtenEPK8Variable.exit, label %29

._crit_edge.us.i:                                 ; preds = %29
  %35 = getelementptr inbounds nuw i8, ptr %.tr10.us.i, i64 88
  %36 = load ptr, ptr %35, align 8, !tbaa !48
  %.not.us.i = icmp eq ptr %36, null
  br i1 %.not.us.i, label %.loopexit, label %tailrecurse.us.i

.loopexit:                                        ; preds = %._crit_edge.us.i
  %37 = tail call noundef zeroext i1 @_ZNK6Effect16field_is_writtenEPK8Variable(ptr noundef nonnull align 8 dereferenceable(74) %0, ptr noundef %28)
  %38 = add nuw i64 %.01114, 1
  %exitcond.not = icmp eq i64 %38, %umax20
  %or.cond28 = select i1 %37, i1 true, i1 %exitcond.not
  br i1 %or.cond28, label %_ZNK6Effect10is_writtenEPK8Variable.exit, label %tailrecurse.us.preheader.i, !llvm.loop !117

_ZNK6Effect10is_writtenEPK8Variable.exit:         ; preds = %.loopexit, %31, %.critedge.us, %.preheader, %2, %_ZNK8Variable12is_aggregateEv.exit
  %.2 = phi i1 [ false, %_ZNK8Variable12is_aggregateEv.exit ], [ false, %2 ], [ false, %.preheader ], [ %25, %.critedge.us ], [ true, %31 ], [ %37, %.loopexit ]
  ret i1 %.2
}